target datalayout = "e-m:e-p270:32:32-p271:32:32-p272:64:64-i64:64-i128:128-f80:128-n8:16:32:64-S128"
target triple = "x86_64-pc-linux-gnu"

%struct.Lf_Man_t_ = type { ptr, ptr, i32, i32, ptr, %struct.Vec_Ptr_t_, %struct.Vec_Int_t_, ptr, %struct.Vec_Ptr_t_, %struct.Lf_Mem_t_, %struct.Lf_Mem_t_, %struct.Vec_Int_t_, %struct.Vec_Int_t_, %struct.Vec_Int_t_, %struct.Vec_Flt_t_, %struct.Vec_Int_t_, %struct.Vec_Flt_t_, %struct.Vec_Int_t_, i64, [4 x double], double, i32, i32, i32, i32, i32, i32, i32, i32, [14 x i32] }
%struct.Vec_Ptr_t_ = type { i32, i32, ptr }
%struct.Lf_Mem_t_ = type { i32, i32, i32, i32, %struct.Vec_Ptr_t_, ptr }
%struct.Vec_Flt_t_ = type { i32, i32, ptr }
%struct.Vec_Int_t_ = type { i32, i32, ptr }
%struct.Jf_Par_t_ = type { i32, i32, i32, i32, i32, i32, i32, i32, i32, i32, i32, i32, i32, i32, i32, i32, i32, i32, i32, i32, i32, i32, i32, i32, i32, i32, i32, i32, i32, i32, i32, i32, i32, i32, i32, i32, i32, i32, i32, i32, i64, i64, i64, i64, i64, i64, i64, i64, i32, float, float, float, float, ptr, ptr }
%struct.timespec = type { i64, i64 }

@.str.4 = private unnamed_addr constant [7 x i8] c"%s :  \00", align 1
@.str.5 = private unnamed_addr constant [15 x i8] c"Level =%6lu   \00", align 1
@.str.6 = private unnamed_addr constant [14 x i8] c"Area =%9lu   \00", align 1
@.str.7 = private unnamed_addr constant [14 x i8] c"Edge =%9lu   \00", align 1
@.str.8 = private unnamed_addr constant [12 x i8] c"LUT =%9lu  \00", align 1
@.str.9 = private unnamed_addr constant [13 x i8] c"Swt =%8.1f  \00", align 1
@.str.10 = private unnamed_addr constant [13 x i8] c"Mux7 =%7lu  \00", align 1
@.str.11 = private unnamed_addr constant [5 x i8] c"Time\00", align 1
@stdout = external global ptr, align 8
@.str.52 = private unnamed_addr constant [5 x i8] c"%s =\00", align 1
@.str.53 = private unnamed_addr constant [11 x i8] c"%9.2f sec\0A\00", align 1

; Function Attrs: inlinehint nounwind uwtable
define internal void @Abc_PrintTime(i32 noundef %0, ptr noundef %1, i64 noundef %2) #1 {
  %4 = alloca i32, align 4
  %5 = alloca ptr, align 8
  %6 = alloca i64, align 8
  store i32 %0, ptr %4, align 4, !tbaa !26
  store ptr %1, ptr %5, align 8, !tbaa !110
  store i64 %2, ptr %6, align 8, !tbaa !53
  %7 = load ptr, ptr %5, align 8, !tbaa !110
  call void (i32, ptr, ...) @Abc_Print(i32 noundef 1, ptr noundef @.str.52, ptr noundef %7)
  %8 = load i64, ptr %6, align 8, !tbaa !53
  %9 = sitofp i64 %8 to double
  %10 = fmul double 1.000000e+00, %9
  %11 = fdiv double %10, 1.000000e+06
  call void (i32, ptr, ...) @Abc_Print(i32 noundef 1, ptr noundef @.str.53, double noundef %11)
  ret void
}

; Function Attrs: inlinehint nounwind uwtable
define internal i64 @Abc_Clock() #1 {
  %1 = alloca i64, align 8
  %2 = alloca %struct.timespec, align 8
  %3 = alloca i32, align 4
  %4 = alloca i64, align 8
  call void @llvm.lifetime.start.p0(i64 16, ptr %2) #14
  %5 = call i32 @clock_gettime(i32 noundef 1, ptr noundef %2) #14
  %6 = icmp slt i32 %5, 0
  br i1 %6, label %7, label %8

7:                                                ; preds = %0
  store i64 -1, ptr %1, align 8
  store i32 1, ptr %3, align 4
  br label %19

8:                                                ; preds = %0
  call void @llvm.lifetime.start.p0(i64 8, ptr %4) #14
  %9 = getelementptr inbounds nuw %struct.timespec, ptr %2, i32 0, i32 0
  %10 = load i64, ptr %9, align 8, !tbaa !313
  %11 = mul nsw i64 %10, 1000000
  store i64 %11, ptr %4, align 8, !tbaa !53
  %12 = getelementptr inbounds nuw %struct.timespec, ptr %2, i32 0, i32 1
  %13 = load i64, ptr %12, align 8, !tbaa !315
  %14 = mul nsw i64 %13, 1000000
  %15 = sdiv i64 %14, 1000000000
  %16 = load i64, ptr %4, align 8, !tbaa !53
  %17 = add nsw i64 %16, %15
  store i64 %17, ptr %4, align 8, !tbaa !53
  %18 = load i64, ptr %4, align 8, !tbaa !53
  store i64 %18, ptr %1, align 8
  store i32 1, ptr %3, align 4
  call void @llvm.lifetime.end.p0(i64 8, ptr %4) #14
  br label %19

19:                                               ; preds = %8, %7
  call void @llvm.lifetime.end.p0(i64 16, ptr %2) #14
  %20 = load i64, ptr %1, align 8
  ret i64 %20
}

; Function Attrs: inlinehint nounwind uwtable
define internal i32 @Vec_FltSize(ptr noundef %0) #1 {
  %2 = alloca ptr, align 8
  store ptr %0, ptr %2, align 8, !tbaa !62
  %3 = load ptr, ptr %2, align 8, !tbaa !62
  %4 = getelementptr inbounds nuw %struct.Vec_Flt_t_, ptr %3, i32 0, i32 1
  %5 = load i32, ptr %4, align 4, !tbaa !135
  ret i32 %5
}

; Function Attrs: nounwind uwtable
define void @Lf_ManPrintStats(ptr noundef %0, ptr noundef %1) #0 {
  %3 = alloca ptr, align 8
  %4 = alloca ptr, align 8
  store ptr %0, ptr %3, align 8, !tbaa !3
  store ptr %1, ptr %4, align 8, !tbaa !110
  %5 = load ptr, ptr %3, align 8, !tbaa !3
  %6 = getelementptr inbounds nuw %struct.Lf_Man_t_, ptr %5, i32 0, i32 1
  %7 = load ptr, ptr %6, align 8, !tbaa !69
  %8 = getelementptr inbounds nuw %struct.Jf_Par_t_, ptr %7, i32 0, i32 34
  %9 = load i32, ptr %8, align 8, !tbaa !238
  %10 = icmp ne i32 %9, 0
  br i1 %10, label %12, label %11

11:                                               ; preds = %2
  br label %75

12:                                               ; preds = %2
  %13 = load ptr, ptr %4, align 8, !tbaa !110
  %14 = call i32 (ptr, ...) @printf(ptr noundef @.str.4, ptr noundef %13)
  %15 = load ptr, ptr %3, align 8, !tbaa !3
  %16 = getelementptr inbounds nuw %struct.Lf_Man_t_, ptr %15, i32 0, i32 1
  %17 = load ptr, ptr %16, align 8, !tbaa !69
  %18 = getelementptr inbounds nuw %struct.Jf_Par_t_, ptr %17, i32 0, i32 40
  %19 = load i64, ptr %18, align 8, !tbaa !148
  %20 = call i32 (ptr, ...) @printf(ptr noundef @.str.5, i64 noundef %19)
  %21 = load ptr, ptr %3, align 8, !tbaa !3
  %22 = getelementptr inbounds nuw %struct.Lf_Man_t_, ptr %21, i32 0, i32 1
  %23 = load ptr, ptr %22, align 8, !tbaa !69
  %24 = getelementptr inbounds nuw %struct.Jf_Par_t_, ptr %23, i32 0, i32 41
  %25 = load i64, ptr %24, align 8, !tbaa !143
  %26 = call i32 (ptr, ...) @printf(ptr noundef @.str.6, i64 noundef %25)
  %27 = load ptr, ptr %3, align 8, !tbaa !3
  %28 = getelementptr inbounds nuw %struct.Lf_Man_t_, ptr %27, i32 0, i32 1
  %29 = load ptr, ptr %28, align 8, !tbaa !69
  %30 = getelementptr inbounds nuw %struct.Jf_Par_t_, ptr %29, i32 0, i32 42
  %31 = load i64, ptr %30, align 8, !tbaa !141
  %32 = call i32 (ptr, ...) @printf(ptr noundef @.str.7, i64 noundef %31)
  %33 = load ptr, ptr %3, align 8, !tbaa !3
  %34 = getelementptr inbounds nuw %struct.Lf_Man_t_, ptr %33, i32 0, i32 1
  %35 = load ptr, ptr %34, align 8, !tbaa !69
  %36 = getelementptr inbounds nuw %struct.Jf_Par_t_, ptr %35, i32 0, i32 41
  %37 = load i64, ptr %36, align 8, !tbaa !143
  %38 = load ptr, ptr %3, align 8, !tbaa !3
  %39 = getelementptr inbounds nuw %struct.Lf_Man_t_, ptr %38, i32 0, i32 23
  %40 = load i32, ptr %39, align 8, !tbaa !242
  %41 = sext i32 %40 to i64
  %42 = add nsw i64 %37, %41
  %43 = call i32 (ptr, ...) @printf(ptr noundef @.str.8, i64 noundef %42)
  %44 = load ptr, ptr %3, align 8, !tbaa !3
  %45 = getelementptr inbounds nuw %struct.Lf_Man_t_, ptr %44, i32 0, i32 16
  %46 = call i32 @Vec_FltSize(ptr noundef %45)
  %47 = icmp ne i32 %46, 0
  br i1 %47, label %48, label %53

48:                                               ; preds = %12
  %49 = load ptr, ptr %3, align 8, !tbaa !3
  %50 = getelementptr inbounds nuw %struct.Lf_Man_t_, ptr %49, i32 0, i32 20
  %51 = load double, ptr %50, align 8, !tbaa !142
  %52 = call i32 (ptr, ...) @printf(ptr noundef @.str.9, double noundef %51)
  br label %53

53:                                               ; preds = %48, %12
  %54 = load ptr, ptr %3, align 8, !tbaa !3
  %55 = getelementptr inbounds nuw %struct.Lf_Man_t_, ptr %54, i32 0, i32 1
  %56 = load ptr, ptr %55, align 8, !tbaa !69
  %57 = getelementptr inbounds nuw %struct.Jf_Par_t_, ptr %56, i32 0, i32 19
  %58 = load i32, ptr %57, align 4, !tbaa !100
  %59 = icmp ne i32 %58, 0
  br i1 %59, label %60, label %67

60:                                               ; preds = %53
  %61 = load ptr, ptr %3, align 8, !tbaa !3
  %62 = getelementptr inbounds nuw %struct.Lf_Man_t_, ptr %61, i32 0, i32 1
  %63 = load ptr, ptr %62, align 8, !tbaa !69
  %64 = getelementptr inbounds nuw %struct.Jf_Par_t_, ptr %63, i32 0, i32 44
  %65 = load i64, ptr %64, align 8, !tbaa !140
  %66 = call i32 (ptr, ...) @printf(ptr noundef @.str.10, i64 noundef %65)
  br label %67

67:                                               ; preds = %60, %53
  %68 = call i64 @Abc_Clock()
  %69 = load ptr, ptr %3, align 8, !tbaa !3
  %70 = getelementptr inbounds nuw %struct.Lf_Man_t_, ptr %69, i32 0, i32 18
  %71 = load i64, ptr %70, align 8, !tbaa !196
  %72 = sub nsw i64 %68, %71
  call void @Abc_PrintTime(i32 noundef 1, ptr noundef @.str.11, i64 noundef %72)
  %73 = load ptr, ptr @stdout, align 8, !tbaa !158
  %74 = call i32 @fflush(ptr noundef %73)
  br label %75

75:                                               ; preds = %67, %11
  ret void
}