; Function Attrs: nounwind uwtable
define void @Lf_ManPrintStats(ptr noundef readonly captures(none) %0, ptr noundef %1) local_unnamed_addr #5 {
  %3 = alloca %struct.timespec, align 8
  %4 = getelementptr inbounds nuw i8, ptr %0, i64 8
  %5 = load ptr, ptr %4, align 8, !tbaa !55
  %6 = getelementptr inbounds nuw i8, ptr %5, i64 136
  %7 = load i32, ptr %6, align 8, !tbaa !263
  %.not = icmp eq i32 %7, 0
  br i1 %.not, label %60, label %8

8:                                                ; preds = %2
  %9 = tail call i32 (ptr, ...) @printf(ptr noundef nonnull dereferenceable(1) @.str.4, ptr noundef %1)
  %10 = load ptr, ptr %4, align 8, !tbaa !55
  %11 = getelementptr inbounds nuw i8, ptr %10, i64 160
  %12 = load i64, ptr %11, align 8, !tbaa !173
  %13 = tail call i32 (ptr, ...) @printf(ptr noundef nonnull dereferenceable(1) @.str.5, i64 noundef %12)
  %14 = load ptr, ptr %4, align 8, !tbaa !55
  %15 = getelementptr inbounds nuw i8, ptr %14, i64 168
  %16 = load i64, ptr %15, align 8, !tbaa !184
  %17 = tail call i32 (ptr, ...) @printf(ptr noundef nonnull dereferenceable(1) @.str.6, i64 noundef %16)
  %18 = load ptr, ptr %4, align 8, !tbaa !55
  %19 = getelementptr inbounds nuw i8, ptr %18, i64 176
  %20 = load i64, ptr %19, align 8, !tbaa !191
  %21 = tail call i32 (ptr, ...) @printf(ptr noundef nonnull dereferenceable(1) @.str.7, i64 noundef %20)
  %22 = load ptr, ptr %4, align 8, !tbaa !55
  %23 = getelementptr inbounds nuw i8, ptr %22, i64 168
  %24 = load i64, ptr %23, align 8, !tbaa !184
  %25 = getelementptr inbounds nuw i8, ptr %0, i64 336
  %26 = load i32, ptr %25, align 8, !tbaa !264
  %27 = sext i32 %26 to i64
  %28 = add nsw i64 %24, %27
  %29 = tail call i32 (ptr, ...) @printf(ptr noundef nonnull dereferenceable(1) @.str.8, i64 noundef %28)
  %30 = getelementptr i8, ptr %0, i64 252
  %.val = load i32, ptr %30, align 4, !tbaa !162
  %.not12 = icmp eq i32 %.val, 0
  br i1 %.not12, label %35, label %31

31:                                               ; preds = %8
  %32 = getelementptr inbounds nuw i8, ptr %0, i64 320
  %33 = load double, ptr %32, align 8, !tbaa !169
  %34 = tail call i32 (ptr, ...) @printf(ptr noundef nonnull dereferenceable(1) @.str.9, double noundef %33)
  br label %35

35:                                               ; preds = %31, %8
  %36 = load ptr, ptr %4, align 8, !tbaa !55
  %37 = getelementptr inbounds nuw i8, ptr %36, i64 76
  %38 = load i32, ptr %37, align 4, !tbaa !130
  %.not13 = icmp eq i32 %38, 0
  br i1 %.not13, label %43, label %39

39:                                               ; preds = %35
  %40 = getelementptr inbounds nuw i8, ptr %36, i64 192
  %41 = load i64, ptr %40, align 8, !tbaa !174
  %42 = tail call i32 (ptr, ...) @printf(ptr noundef nonnull dereferenceable(1) @.str.10, i64 noundef %41)
  br label %43

43:                                               ; preds = %39, %35
  call void @llvm.lifetime.start.p0(i64 16, ptr nonnull %3) #34
  %44 = call i32 @clock_gettime(i32 noundef 1, ptr noundef nonnull %3) #34
  %45 = icmp slt i32 %44, 0
  br i1 %45, label %Abc_Clock.exit, label %46

46:                                               ; preds = %43
  %47 = load i64, ptr %3, align 8, !tbaa !223
  %48 = mul nsw i64 %47, 1000000
  %49 = getelementptr inbounds nuw i8, ptr %3, i64 8
  %50 = load i64, ptr %49, align 8, !tbaa !225
  %51 = sdiv i64 %50, 1000
  %52 = add nsw i64 %51, %48
  br label %Abc_Clock.exit

Abc_Clock.exit:                                   ; preds = %43, %46
  %.0.i = phi i64 [ %52, %46 ], [ -1, %43 ]
  call void @llvm.lifetime.end.p0(i64 16, ptr nonnull %3) #34
  %53 = getelementptr inbounds nuw i8, ptr %0, i64 280
  %54 = load i64, ptr %53, align 8, !tbaa !226
  %55 = sub nsw i64 %.0.i, %54
  call void (i32, ptr, ...) @Abc_Print(i32 noundef 1, ptr noundef nonnull @.str.52, ptr noundef nonnull @.str.11)
  %56 = sitofp i64 %55 to double
  %57 = fdiv double %56, 1.000000e+06
  call void (i32, ptr, ...) @Abc_Print(i32 noundef 1, ptr noundef nonnull @.str.53, double noundef %57)
  %58 = load ptr, ptr @stdout, align 8, !tbaa !185
  %59 = call i32 @fflush(ptr noundef %58)
  br label %60

60:                                               ; preds = %2, %Abc_Clock.exit
  ret void
}